; Function Attrs: mustprogress nofree norecurse nosync nounwind willreturn memory(argmem: readwrite, inaccessiblemem: write) uwtable
define internal void @_ZZ34test_submodule_custom_type_castersRN8pybind117module_EEN12ArgInspector1hE13ArgInspector217ArgAlwaysConverts(ptr dead_on_unwind noalias writable sret(%class.ArgInspector2) align 8 %0, ptr noundef %1) #10 align 2 personality ptr @__gxx_personality_v0 {
  %3 = getelementptr inbounds nuw i8, ptr %0, i64 16
  store ptr %3, ptr %0, align 8, !tbaa !74
  %4 = load ptr, ptr %1, align 8, !tbaa !11
  %5 = getelementptr inbounds nuw i8, ptr %1, i64 16
  %6 = icmp eq ptr %4, %5
  br i1 %6, label %7, label %_ZNKSt7__cxx1112basic_stringIcSt11char_traitsIcESaIcEE11_M_is_localEv.exit.i.i

7:                                                ; preds = %2
  %8 = getelementptr inbounds nuw i8, ptr %1, i64 8
  %9 = load i64, ptr %8, align 8, !tbaa !78
  %10 = icmp ult i64 %9, 16
  tail call void @llvm.assume(i1 %10)
  %11 = add nuw nsw i64 %9, 1
  tail call void @llvm.memcpy.p0.p0.i64(ptr noundef nonnull align 8 dereferenceable(1) %3, ptr noundef nonnull align 8 dereferenceable(1) %5, i64 %11, i1 false)
  br label %_ZN13ArgInspector2C2EOS_.exit

_ZNKSt7__cxx1112basic_stringIcSt11char_traitsIcESaIcEE11_M_is_localEv.exit.i.i: ; preds = %2
  store ptr %4, ptr %0, align 8, !tbaa !11
  %12 = load i64, ptr %5, align 8, !tbaa !79
  store i64 %12, ptr %3, align 8, !tbaa !79
  %.phi.trans.insert = getelementptr inbounds nuw i8, ptr %1, i64 8
  %.pre = load i64, ptr %.phi.trans.insert, align 8, !tbaa !78
  br label %_ZN13ArgInspector2C2EOS_.exit

_ZN13ArgInspector2C2EOS_.exit:                    ; preds = %7, %_ZNKSt7__cxx1112basic_stringIcSt11char_traitsIcESaIcEE11_M_is_localEv.exit.i.i
  %13 = phi i64 [ %9, %7 ], [ %.pre, %_ZNKSt7__cxx1112basic_stringIcSt11char_traitsIcESaIcEE11_M_is_localEv.exit.i.i ]
  %14 = getelementptr inbounds nuw i8, ptr %1, i64 8
  %15 = getelementptr inbounds nuw i8, ptr %0, i64 8
  store i64 %13, ptr %15, align 8, !tbaa !78
  store ptr %5, ptr %1, align 8, !tbaa !11
  store i64 0, ptr %14, align 8, !tbaa !78
  store i8 0, ptr %5, align 1, !tbaa !79
  ret void
}